target datalayout = "e-m:e-p270:32:32-p271:32:32-p272:64:64-i64:64-i128:128-f80:128-n8:16:32:64-S128"
target triple = "x86_64-pc-linux-gnu"

%struct.ssl_cipher_st = type { i32, ptr, ptr, i32, i32, i32, i32, i32, i32, i32, i32, i32, i32, i32, i32, i32 }
%struct.ssl_connection_st = type { %struct.ssl_st, ptr, i32, ptr, ptr, ptr, i32, ptr, i32, i32, i32, i32, %struct.OSSL_TIME, %struct.OSSL_TIME, %struct.ossl_statem_st, i32, ptr, ptr, i64, i64, i64, %struct.ossl_quic_tls_callbacks_st, ptr, ptr, %struct.anon, ptr, ptr, ptr, i32, ptr, %struct.ssl_dane_st, ptr, ptr, ptr, ptr, i32, [64 x i8], [64 x i8], [64 x i8], [64 x i8], [64 x i8], [64 x i8], [64 x i8], [64 x i8], [64 x i8], [64 x i8], [64 x i8], [64 x i8], ptr, [64 x i8], i64, i32, i64, [32 x i8], ptr, ptr, ptr, i64, ptr, [32 x i8], i64, i32, ptr, ptr, i32, i32, ptr, ptr, ptr, ptr, ptr, i64, ptr, ptr, i64, i32, i32, i32, i64, i32, i32, i64, i64, i64, %struct.anon.1, ptr, i32, ptr, ptr, ptr, i32, ptr, ptr, ptr, i32, i32, i32, i32, ptr, i64, i32, ptr, %struct.srp_ctx_st, ptr, %struct.record_layer_st, ptr, ptr, ptr, ptr, i64, i32, i32, i32, i64, i64, i64, ptr, ptr, ptr, ptr, ptr, i64, ptr, i64, ptr, i64 }
%struct.ssl_st = type { i32, ptr, ptr, ptr, %struct.CRYPTO_REF_COUNT, ptr, %struct.crypto_ex_data_st }
%struct.CRYPTO_REF_COUNT = type { i32 }
%struct.crypto_ex_data_st = type { ptr, ptr }
%struct.OSSL_TIME = type { i64 }
%struct.ossl_statem_st = type { i32, i32, i32, i32, i32, i32, i32, i32, i32, i32, i32, i32, i32, ptr, ptr, ptr, i8 }
%struct.ossl_quic_tls_callbacks_st = type { ptr, ptr, ptr, ptr, ptr, ptr }
%struct.anon = type { i64, [32 x i8], [32 x i8], ptr, ptr, i32, i32, i32, i32, [2 x i8], i32, i32, i32, i32, %struct.anon.0, [64 x i8], i64, [64 x i8], i64, i32, i32, ptr, i64, ptr, i64, i32, i8, i8, i16, ptr, i16 }
%struct.anon.0 = type { [128 x i8], i64, [128 x i8], i64, i64, i32, ptr, ptr, [4 x ptr], [4 x i16], i64, i32, ptr, i64, ptr, i64, ptr, ptr, ptr, i32, i64, ptr, i32, ptr, i64, ptr, i64, ptr, i64, ptr, ptr, ptr, ptr, i64, i64, ptr, ptr, i32, i32, i32, i32 }
%struct.ssl_dane_st = type { ptr, ptr, ptr, ptr, ptr, i32, i32, i32, i64 }
%struct.anon.1 = type { [29 x i8], ptr, ptr, ptr, i32, ptr, i16, i32, %struct.anon.2, i32, i32, i64, ptr, i64, ptr, i64, ptr, i64, ptr, i64, ptr, i64, ptr, ptr, ptr, ptr, ptr, ptr, ptr, i64, ptr, i64, i32, i32, i32, i32, ptr, i64, i32, i8, i32, [4 x i32], i32, i8, i8, i8, i8 }
%struct.anon.2 = type { ptr, ptr, ptr, i64 }
%struct.srp_ctx_st = type { ptr, ptr, ptr, ptr, ptr, ptr, ptr, ptr, ptr, ptr, ptr, ptr, ptr, ptr, i32, i64 }
%struct.record_layer_st = type { ptr, ptr, ptr, ptr, ptr, ptr, ptr, ptr, i64, i32, i64, [4 x i8], i64, i64, i8, ptr, i32, ptr, ptr, ptr, i64, i64, i64, i64, [32 x %struct.tls_record_st] }
%struct.tls_record_st = type { ptr, i32, i8, ptr, ptr, i64, i64, i16, [8 x i8] }
%struct.ssl_method_st = type { i32, i32, i64, ptr, ptr, ptr, ptr, ptr, ptr, ptr, ptr, ptr, ptr, ptr, ptr, ptr, ptr, ptr, ptr, ptr, ptr, ptr, ptr, ptr, ptr, ptr, ptr, ptr, ptr, ptr, ptr, ptr }
%struct.ssl3_enc_method = type { ptr, ptr, ptr, ptr, ptr, i64, ptr, i64, ptr, ptr, i32, ptr, ptr, ptr }
%struct.ssl_session_st = type { i32, i64, [64 x i8], [512 x i8], i64, [32 x i8], i64, [32 x i8], ptr, ptr, i32, ptr, ptr, ptr, i64, %struct.OSSL_TIME, %struct.OSSL_TIME, %struct.OSSL_TIME, i32, ptr, i64, i32, %struct.crypto_ex_data_st, %struct.anon.3, ptr, ptr, i64, i32, ptr, ptr, ptr, %struct.CRYPTO_REF_COUNT }
%struct.anon.3 = type { ptr, ptr, i64, i64, i32, i32, ptr, i64, i8 }

@.str.2 = private unnamed_addr constant [24 x i8] c"../openssl/ssl/s3_lib.c\00", align 1

; Function Attrs: nounwind uwtable
define i32 @ssl_generate_master_secret(ptr noundef %0, ptr noundef %1, i64 noundef %2, i32 noundef %3) #0 {
  %5 = alloca i32, align 4
  %6 = alloca ptr, align 8
  %7 = alloca ptr, align 8
  %8 = alloca i64, align 8
  %9 = alloca i32, align 4
  %10 = alloca i64, align 8
  %11 = alloca i32, align 4
  %12 = alloca ptr, align 8
  %13 = alloca ptr, align 8
  %14 = alloca ptr, align 8
  %15 = alloca i64, align 8
  %16 = alloca i64, align 8
  %17 = alloca i32, align 4
  store ptr %0, ptr %6, align 8, !tbaa !13
  store ptr %1, ptr %7, align 8, !tbaa !15
  store i64 %2, ptr %8, align 8, !tbaa !16
  store i32 %3, ptr %9, align 4, !tbaa !18
  call void @llvm.lifetime.start.p0(i64 8, ptr %10) #10
  %18 = load ptr, ptr %6, align 8, !tbaa !13
  %19 = getelementptr inbounds nuw %struct.ssl_connection_st, ptr %18, i32 0, i32 24
  %20 = getelementptr inbounds nuw %struct.anon, ptr %19, i32 0, i32 14
  %21 = getelementptr inbounds nuw %struct.anon.0, ptr %20, i32 0, i32 6
  %22 = load ptr, ptr %21, align 8, !tbaa !132
  %23 = getelementptr inbounds nuw %struct.ssl_cipher_st, ptr %22, i32 0, i32 4
  %24 = load i32, ptr %23, align 4, !tbaa !237
  %25 = zext i32 %24 to i64
  store i64 %25, ptr %10, align 8, !tbaa !16
  call void @llvm.lifetime.start.p0(i64 4, ptr %11) #10
  store i32 0, ptr %11, align 4, !tbaa !18
  call void @llvm.lifetime.start.p0(i64 8, ptr %12) #10
  %26 = load ptr, ptr %6, align 8, !tbaa !13
  %27 = getelementptr inbounds nuw %struct.ssl_connection_st, ptr %26, i32 0, i32 0
  store ptr %27, ptr %12, align 8, !tbaa !23
  %28 = load i64, ptr %10, align 8, !tbaa !16
  %29 = and i64 %28, 456
  %30 = icmp ne i64 %29, 0
  br i1 %30, label %31, label %145

31:                                               ; preds = %4
  call void @llvm.lifetime.start.p0(i64 8, ptr %13) #10
  call void @llvm.lifetime.start.p0(i64 8, ptr %14) #10
  call void @llvm.lifetime.start.p0(i64 8, ptr %15) #10
  %32 = load ptr, ptr %6, align 8, !tbaa !13
  %33 = getelementptr inbounds nuw %struct.ssl_connection_st, ptr %32, i32 0, i32 24
  %34 = getelementptr inbounds nuw %struct.anon, ptr %33, i32 0, i32 14
  %35 = getelementptr inbounds nuw %struct.anon.0, ptr %34, i32 0, i32 28
  %36 = load i64, ptr %35, align 8, !tbaa !258
  store i64 %36, ptr %15, align 8, !tbaa !16
  call void @llvm.lifetime.start.p0(i64 8, ptr %16) #10
  %37 = load i64, ptr %10, align 8, !tbaa !16
  %38 = and i64 %37, 8
  %39 = icmp ne i64 %38, 0
  br i1 %39, label %40, label %42

40:                                               ; preds = %31
  %41 = load i64, ptr %15, align 8, !tbaa !16
  store i64 %41, ptr %8, align 8, !tbaa !16
  br label %42

42:                                               ; preds = %40, %31
  %43 = load i64, ptr %8, align 8, !tbaa !16
  %44 = add i64 4, %43
  %45 = load i64, ptr %15, align 8, !tbaa !16
  %46 = add i64 %44, %45
  store i64 %46, ptr %16, align 8, !tbaa !16
  %47 = load i64, ptr %16, align 8, !tbaa !16
  %48 = call noalias ptr @CRYPTO_malloc(i64 noundef %47, ptr noundef @.str.2, i32 noundef 4827)
  store ptr %48, ptr %13, align 8, !tbaa !15
  %49 = load ptr, ptr %13, align 8, !tbaa !15
  %50 = icmp eq ptr %49, null
  br i1 %50, label %51, label %52

51:                                               ; preds = %42
  store i32 2, ptr %17, align 4
  br label %142

52:                                               ; preds = %42
  %53 = load ptr, ptr %13, align 8, !tbaa !15
  store ptr %53, ptr %14, align 8, !tbaa !15
  %54 = load i64, ptr %8, align 8, !tbaa !16
  %55 = lshr i64 %54, 8
  %56 = and i64 %55, 255
  %57 = trunc i64 %56 to i8
  %58 = load ptr, ptr %14, align 8, !tbaa !15
  %59 = getelementptr inbounds i8, ptr %58, i64 0
  store i8 %57, ptr %59, align 1, !tbaa !217
  %60 = load i64, ptr %8, align 8, !tbaa !16
  %61 = and i64 %60, 255
  %62 = trunc i64 %61 to i8
  %63 = load ptr, ptr %14, align 8, !tbaa !15
  %64 = getelementptr inbounds i8, ptr %63, i64 1
  store i8 %62, ptr %64, align 1, !tbaa !217
  %65 = load ptr, ptr %14, align 8, !tbaa !15
  %66 = getelementptr inbounds i8, ptr %65, i64 2
  store ptr %66, ptr %14, align 8, !tbaa !15
  %67 = load i64, ptr %10, align 8, !tbaa !16
  %68 = and i64 %67, 8
  %69 = icmp ne i64 %68, 0
  br i1 %69, label %70, label %73

70:                                               ; preds = %52
  %71 = load ptr, ptr %14, align 8, !tbaa !15
  %72 = load i64, ptr %8, align 8, !tbaa !16
  call void @llvm.memset.p0.i64(ptr align 1 %71, i8 0, i64 %72, i1 false)
  br label %77

73:                                               ; preds = %52
  %74 = load ptr, ptr %14, align 8, !tbaa !15
  %75 = load ptr, ptr %7, align 8, !tbaa !15
  %76 = load i64, ptr %8, align 8, !tbaa !16
  call void @llvm.memcpy.p0.p0.i64(ptr align 1 %74, ptr align 1 %75, i64 %76, i1 false)
  br label %77

77:                                               ; preds = %73, %70
  %78 = load i64, ptr %8, align 8, !tbaa !16
  %79 = load ptr, ptr %14, align 8, !tbaa !15
  %80 = getelementptr inbounds nuw i8, ptr %79, i64 %78
  store ptr %80, ptr %14, align 8, !tbaa !15
  %81 = load i64, ptr %15, align 8, !tbaa !16
  %82 = lshr i64 %81, 8
  %83 = and i64 %82, 255
  %84 = trunc i64 %83 to i8
  %85 = load ptr, ptr %14, align 8, !tbaa !15
  %86 = getelementptr inbounds i8, ptr %85, i64 0
  store i8 %84, ptr %86, align 1, !tbaa !217
  %87 = load i64, ptr %15, align 8, !tbaa !16
  %88 = and i64 %87, 255
  %89 = trunc i64 %88 to i8
  %90 = load ptr, ptr %14, align 8, !tbaa !15
  %91 = getelementptr inbounds i8, ptr %90, i64 1
  store i8 %89, ptr %91, align 1, !tbaa !217
  %92 = load ptr, ptr %14, align 8, !tbaa !15
  %93 = getelementptr inbounds i8, ptr %92, i64 2
  store ptr %93, ptr %14, align 8, !tbaa !15
  %94 = load ptr, ptr %14, align 8, !tbaa !15
  %95 = load ptr, ptr %6, align 8, !tbaa !13
  %96 = getelementptr inbounds nuw %struct.ssl_connection_st, ptr %95, i32 0, i32 24
  %97 = getelementptr inbounds nuw %struct.anon, ptr %96, i32 0, i32 14
  %98 = getelementptr inbounds nuw %struct.anon.0, ptr %97, i32 0, i32 27
  %99 = load ptr, ptr %98, align 8, !tbaa !104
  %100 = load i64, ptr %15, align 8, !tbaa !16
  call void @llvm.memcpy.p0.p0.i64(ptr align 1 %94, ptr align 1 %99, i64 %100, i1 false)
  %101 = load ptr, ptr %6, align 8, !tbaa !13
  %102 = getelementptr inbounds nuw %struct.ssl_connection_st, ptr %101, i32 0, i32 24
  %103 = getelementptr inbounds nuw %struct.anon, ptr %102, i32 0, i32 14
  %104 = getelementptr inbounds nuw %struct.anon.0, ptr %103, i32 0, i32 27
  %105 = load ptr, ptr %104, align 8, !tbaa !104
  %106 = load i64, ptr %15, align 8, !tbaa !16
  call void @CRYPTO_clear_free(ptr noundef %105, i64 noundef %106, ptr noundef @.str.2, i32 noundef 4840)
  %107 = load ptr, ptr %6, align 8, !tbaa !13
  %108 = getelementptr inbounds nuw %struct.ssl_connection_st, ptr %107, i32 0, i32 24
  %109 = getelementptr inbounds nuw %struct.anon, ptr %108, i32 0, i32 14
  %110 = getelementptr inbounds nuw %struct.anon.0, ptr %109, i32 0, i32 27
  store ptr null, ptr %110, align 8, !tbaa !104
  %111 = load ptr, ptr %6, align 8, !tbaa !13
  %112 = getelementptr inbounds nuw %struct.ssl_connection_st, ptr %111, i32 0, i32 24
  %113 = getelementptr inbounds nuw %struct.anon, ptr %112, i32 0, i32 14
  %114 = getelementptr inbounds nuw %struct.anon.0, ptr %113, i32 0, i32 28
  store i64 0, ptr %114, align 8, !tbaa !258
  %115 = load ptr, ptr %12, align 8, !tbaa !23
  %116 = getelementptr inbounds nuw %struct.ssl_st, ptr %115, i32 0, i32 3
  %117 = load ptr, ptr %116, align 8, !tbaa !33
  %118 = getelementptr inbounds nuw %struct.ssl_method_st, ptr %117, i32 0, i32 28
  %119 = load ptr, ptr %118, align 8, !tbaa !148
  %120 = getelementptr inbounds nuw %struct.ssl3_enc_method, ptr %119, i32 0, i32 1
  %121 = load ptr, ptr %120, align 8, !tbaa !259
  %122 = load ptr, ptr %6, align 8, !tbaa !13
  %123 = load ptr, ptr %6, align 8, !tbaa !13
  %124 = getelementptr inbounds nuw %struct.ssl_connection_st, ptr %123, i32 0, i32 54
  %125 = load ptr, ptr %124, align 8, !tbaa !135
  %126 = getelementptr inbounds nuw %struct.ssl_session_st, ptr %125, i32 0, i32 3
  %127 = getelementptr inbounds [512 x i8], ptr %126, i64 0, i64 0
  %128 = load ptr, ptr %13, align 8, !tbaa !15
  %129 = load i64, ptr %16, align 8, !tbaa !16
  %130 = load ptr, ptr %6, align 8, !tbaa !13
  %131 = getelementptr inbounds nuw %struct.ssl_connection_st, ptr %130, i32 0, i32 54
  %132 = load ptr, ptr %131, align 8, !tbaa !135
  %133 = getelementptr inbounds nuw %struct.ssl_session_st, ptr %132, i32 0, i32 1
  %134 = call i32 %121(ptr noundef %122, ptr noundef %127, ptr noundef %128, i64 noundef %129, ptr noundef %133)
  %135 = icmp ne i32 %134, 0
  br i1 %135, label %139, label %136

136:                                              ; preds = %77
  %137 = load ptr, ptr %13, align 8, !tbaa !15
  %138 = load i64, ptr %16, align 8, !tbaa !16
  call void @CRYPTO_clear_free(ptr noundef %137, i64 noundef %138, ptr noundef @.str.2, i32 noundef 4846)
  store i32 2, ptr %17, align 4
  br label %142

139:                                              ; preds = %77
  %140 = load ptr, ptr %13, align 8, !tbaa !15
  %141 = load i64, ptr %16, align 8, !tbaa !16
  call void @CRYPTO_clear_free(ptr noundef %140, i64 noundef %141, ptr noundef @.str.2, i32 noundef 4850)
  store i32 0, ptr %17, align 4
  br label %142

142:                                              ; preds = %136, %51, %139
  call void @llvm.lifetime.end.p0(i64 8, ptr %16) #10
  call void @llvm.lifetime.end.p0(i64 8, ptr %15) #10
  call void @llvm.lifetime.end.p0(i64 8, ptr %14) #10
  call void @llvm.lifetime.end.p0(i64 8, ptr %13) #10
  %143 = load i32, ptr %17, align 4
  switch i32 %143, label %199 [
    i32 0, label %144
    i32 2, label %170
  ]

144:                                              ; preds = %142
  br label %169

145:                                              ; preds = %4
  %146 = load ptr, ptr %12, align 8, !tbaa !23
  %147 = getelementptr inbounds nuw %struct.ssl_st, ptr %146, i32 0, i32 3
  %148 = load ptr, ptr %147, align 8, !tbaa !33
  %149 = getelementptr inbounds nuw %struct.ssl_method_st, ptr %148, i32 0, i32 28
  %150 = load ptr, ptr %149, align 8, !tbaa !148
  %151 = getelementptr inbounds nuw %struct.ssl3_enc_method, ptr %150, i32 0, i32 1
  %152 = load ptr, ptr %151, align 8, !tbaa !259
  %153 = load ptr, ptr %6, align 8, !tbaa !13
  %154 = load ptr, ptr %6, align 8, !tbaa !13
  %155 = getelementptr inbounds nuw %struct.ssl_connection_st, ptr %154, i32 0, i32 54
  %156 = load ptr, ptr %155, align 8, !tbaa !135
  %157 = getelementptr inbounds nuw %struct.ssl_session_st, ptr %156, i32 0, i32 3
  %158 = getelementptr inbounds [512 x i8], ptr %157, i64 0, i64 0
  %159 = load ptr, ptr %7, align 8, !tbaa !15
  %160 = load i64, ptr %8, align 8, !tbaa !16
  %161 = load ptr, ptr %6, align 8, !tbaa !13
  %162 = getelementptr inbounds nuw %struct.ssl_connection_st, ptr %161, i32 0, i32 54
  %163 = load ptr, ptr %162, align 8, !tbaa !135
  %164 = getelementptr inbounds nuw %struct.ssl_session_st, ptr %163, i32 0, i32 1
  %165 = call i32 %152(ptr noundef %153, ptr noundef %158, ptr noundef %159, i64 noundef %160, ptr noundef %164)
  %166 = icmp ne i32 %165, 0
  br i1 %166, label %168, label %167

167:                                              ; preds = %145
  br label %170

168:                                              ; preds = %145
  br label %169

169:                                              ; preds = %168, %144
  store i32 1, ptr %11, align 4, !tbaa !18
  br label %170

170:                                              ; preds = %169, %142, %167
  %171 = load ptr, ptr %7, align 8, !tbaa !15
  %172 = icmp ne ptr %171, null
  br i1 %172, label %173, label %183

173:                                              ; preds = %170
  %174 = load i32, ptr %9, align 4, !tbaa !18
  %175 = icmp ne i32 %174, 0
  br i1 %175, label %176, label %179

176:                                              ; preds = %173
  %177 = load ptr, ptr %7, align 8, !tbaa !15
  %178 = load i64, ptr %8, align 8, !tbaa !16
  call void @CRYPTO_clear_free(ptr noundef %177, i64 noundef %178, ptr noundef @.str.2, i32 noundef 4868)
  br label %182

179:                                              ; preds = %173
  %180 = load ptr, ptr %7, align 8, !tbaa !15
  %181 = load i64, ptr %8, align 8, !tbaa !16
  call void @OPENSSL_cleanse(ptr noundef %180, i64 noundef %181)
  br label %182

182:                                              ; preds = %179, %176
  br label %183

183:                                              ; preds = %182, %170
  %184 = load ptr, ptr %6, align 8, !tbaa !13
  %185 = getelementptr inbounds nuw %struct.ssl_connection_st, ptr %184, i32 0, i32 8
  %186 = load i32, ptr %185, align 8, !tbaa !131
  %187 = icmp eq i32 %186, 0
  br i1 %187, label %188, label %197

188:                                              ; preds = %183
  %189 = load ptr, ptr %6, align 8, !tbaa !13
  %190 = getelementptr inbounds nuw %struct.ssl_connection_st, ptr %189, i32 0, i32 24
  %191 = getelementptr inbounds nuw %struct.anon, ptr %190, i32 0, i32 14
  %192 = getelementptr inbounds nuw %struct.anon.0, ptr %191, i32 0, i32 25
  store ptr null, ptr %192, align 8, !tbaa !96
  %193 = load ptr, ptr %6, align 8, !tbaa !13
  %194 = getelementptr inbounds nuw %struct.ssl_connection_st, ptr %193, i32 0, i32 24
  %195 = getelementptr inbounds nuw %struct.anon, ptr %194, i32 0, i32 14
  %196 = getelementptr inbounds nuw %struct.anon.0, ptr %195, i32 0, i32 26
  store i64 0, ptr %196, align 8, !tbaa !97
  br label %197

197:                                              ; preds = %188, %183
  %198 = load i32, ptr %11, align 4, !tbaa !18
  store i32 %198, ptr %5, align 4
  store i32 1, ptr %17, align 4
  br label %199

199:                                              ; preds = %197, %142
  call void @llvm.lifetime.end.p0(i64 8, ptr %12) #10
  call void @llvm.lifetime.end.p0(i64 4, ptr %11) #10
  call void @llvm.lifetime.end.p0(i64 8, ptr %10) #10
  %200 = load i32, ptr %5, align 4
  ret i32 %200
}