; Function Attrs: nounwind uwtable
define range(i32 0, 2) i32 @ssl_generate_master_secret(ptr noundef %0, ptr noundef %1, i64 noundef %2, i32 noundef %3) local_unnamed_addr #4 {
  %5 = getelementptr inbounds nuw i8, ptr %0, i64 768
  %6 = load ptr, ptr %5, align 8, !tbaa !121
  %7 = getelementptr inbounds nuw i8, ptr %6, i64 28
  %8 = load i32, ptr %7, align 4, !tbaa !219
  %9 = zext i32 %8 to i64
  %10 = and i64 %9, 456
  %.not = icmp eq i64 %10, 0
  br i1 %.not, label %49, label %11

11:                                               ; preds = %4
  %12 = getelementptr inbounds nuw i8, ptr %0, i64 968
  %13 = load i64, ptr %12, align 8, !tbaa !237
  %14 = and i64 %9, 8
  %.not69 = icmp eq i64 %14, 0
  %spec.select = select i1 %.not69, i64 %2, i64 %13
  %15 = add i64 %13, 4
  %16 = add i64 %15, %spec.select
  %17 = tail call noalias ptr @CRYPTO_malloc(i64 noundef %16, ptr noundef nonnull @.str.2, i32 noundef 4827) #18
  %18 = icmp eq ptr %17, null
  br i1 %18, label %.thread, label %19

19:                                               ; preds = %11
  %20 = lshr i64 %spec.select, 8
  %21 = trunc i64 %20 to i8
  store i8 %21, ptr %17, align 1, !tbaa !203
  %22 = trunc i64 %spec.select to i8
  %23 = getelementptr inbounds nuw i8, ptr %17, i64 1
  store i8 %22, ptr %23, align 1, !tbaa !203
  %24 = getelementptr inbounds nuw i8, ptr %17, i64 2
  br i1 %.not69, label %26, label %25

25:                                               ; preds = %19
  tail call void @llvm.memset.p0.i64(ptr nonnull align 1 %24, i8 0, i64 %13, i1 false)
  br label %27

26:                                               ; preds = %19
  tail call void @llvm.memcpy.p0.p0.i64(ptr nonnull align 1 %24, ptr align 1 %1, i64 %2, i1 false)
  br label %27

27:                                               ; preds = %26, %25
  %28 = getelementptr inbounds nuw i8, ptr %24, i64 %spec.select
  %29 = lshr i64 %13, 8
  %30 = trunc i64 %29 to i8
  store i8 %30, ptr %28, align 1, !tbaa !203
  %31 = trunc i64 %13 to i8
  %32 = getelementptr inbounds nuw i8, ptr %28, i64 1
  store i8 %31, ptr %32, align 1, !tbaa !203
  %33 = getelementptr inbounds nuw i8, ptr %28, i64 2
  %34 = getelementptr inbounds nuw i8, ptr %0, i64 960
  %35 = load ptr, ptr %34, align 8, !tbaa !94
  tail call void @llvm.memcpy.p0.p0.i64(ptr nonnull align 1 %33, ptr align 1 %35, i64 %13, i1 false)
  tail call void @CRYPTO_clear_free(ptr noundef %35, i64 noundef %13, ptr noundef nonnull @.str.2, i32 noundef 4840) #18
  %36 = getelementptr inbounds nuw i8, ptr %0, i64 24
  tail call void @llvm.memset.p0.i64(ptr noundef nonnull align 8 dereferenceable(16) %34, i8 0, i64 16, i1 false)
  %37 = load ptr, ptr %36, align 8, !tbaa !18
  %38 = getelementptr inbounds nuw i8, ptr %37, i64 216
  %39 = load ptr, ptr %38, align 8, !tbaa !134
  %40 = getelementptr inbounds nuw i8, ptr %39, i64 8
  %41 = load ptr, ptr %40, align 8, !tbaa !238
  %42 = getelementptr inbounds nuw i8, ptr %0, i64 2304
  %43 = load ptr, ptr %42, align 8, !tbaa !124
  %44 = getelementptr inbounds nuw i8, ptr %43, i64 80
  %45 = getelementptr inbounds nuw i8, ptr %43, i64 8
  %46 = tail call i32 %41(ptr noundef nonnull %0, ptr noundef nonnull %44, ptr noundef nonnull %17, i64 noundef %16, ptr noundef nonnull %45) #18
  %.not70 = icmp eq i32 %46, 0
  br i1 %.not70, label %47, label %48

47:                                               ; preds = %27
  tail call void @CRYPTO_clear_free(ptr noundef nonnull %17, i64 noundef %16, ptr noundef nonnull @.str.2, i32 noundef 4846) #18
  br label %.thread

48:                                               ; preds = %27
  tail call void @CRYPTO_clear_free(ptr noundef nonnull %17, i64 noundef %16, ptr noundef nonnull @.str.2, i32 noundef 4850) #18
  br label %.thread

49:                                               ; preds = %4
  %50 = getelementptr inbounds nuw i8, ptr %0, i64 24
  %51 = load ptr, ptr %50, align 8, !tbaa !18
  %52 = getelementptr inbounds nuw i8, ptr %51, i64 216
  %53 = load ptr, ptr %52, align 8, !tbaa !134
  %54 = getelementptr inbounds nuw i8, ptr %53, i64 8
  %55 = load ptr, ptr %54, align 8, !tbaa !238
  %56 = getelementptr inbounds nuw i8, ptr %0, i64 2304
  %57 = load ptr, ptr %56, align 8, !tbaa !124
  %58 = getelementptr inbounds nuw i8, ptr %57, i64 80
  %59 = getelementptr inbounds nuw i8, ptr %57, i64 8
  %60 = tail call i32 %55(ptr noundef nonnull %0, ptr noundef nonnull %58, ptr noundef %1, i64 noundef %2, ptr noundef nonnull %59) #18
  %.not68 = icmp ne i32 %60, 0
  %spec.select76 = zext i1 %.not68 to i32
  br label %.thread

.thread:                                          ; preds = %49, %11, %47, %48
  %.065 = phi i32 [ 1, %48 ], [ 0, %47 ], [ 0, %11 ], [ %spec.select76, %49 ]
  %.1 = phi i64 [ %spec.select, %48 ], [ %spec.select, %47 ], [ %spec.select, %11 ], [ %2, %49 ]
  %.not71 = icmp eq ptr %1, null
  br i1 %.not71, label %64, label %61

61:                                               ; preds = %.thread
  %.not72 = icmp eq i32 %3, 0
  br i1 %.not72, label %63, label %62

62:                                               ; preds = %61
  tail call void @CRYPTO_clear_free(ptr noundef nonnull %1, i64 noundef %.1, ptr noundef nonnull @.str.2, i32 noundef 4868) #18
  br label %64

63:                                               ; preds = %61
  tail call void @OPENSSL_cleanse(ptr noundef nonnull %1, i64 noundef %.1) #18
  br label %64

64:                                               ; preds = %62, %63, %.thread
  %65 = getelementptr inbounds nuw i8, ptr %0, i64 120
  %66 = load i32, ptr %65, align 8, !tbaa !120
  %67 = icmp eq i32 %66, 0
  br i1 %67, label %68, label %70

68:                                               ; preds = %64
  %69 = getelementptr inbounds nuw i8, ptr %0, i64 944
  tail call void @llvm.memset.p0.i64(ptr noundef nonnull align 8 dereferenceable(16) %69, i8 0, i64 16, i1 false)
  br label %70

70:                                               ; preds = %64, %68
  ret i32 %.065
}